target datalayout = "e-m:e-p270:32:32-p271:32:32-p272:64:64-i64:64-i128:128-f80:128-n8:16:32:64-S128"
target triple = "x86_64-pc-linux-gnu"

%struct.H5D_earray_filt_elmt_t = type { i64, i32, i32 }
%struct.H5D_chk_idx_info_t = type { ptr, ptr, ptr, ptr }
%struct.H5O_storage_chunk_t = type { i32, i64, ptr, %union.anon.4 }
%union.anon.4 = type { %struct.H5O_storage_chunk_btree_t }
%struct.H5O_storage_chunk_btree_t = type { i64, ptr }
%struct.H5O_storage_chunk_earray_t = type { i64, ptr }
%struct.H5O_pline_t = type { %struct.H5O_shared_t, i32, i64, i64, ptr }
%struct.H5O_shared_t = type { i32, ptr, i32, %union.anon.5 }
%union.anon.5 = type { %struct.H5O_mesg_loc_t }
%struct.H5O_mesg_loc_t = type { i32, i64 }
%struct.H5D_chunk_ud_t = type { %struct.H5D_chunk_common_ud_t, i32, %struct.H5F_block_t, i32, i8, i64 }
%struct.H5D_chunk_common_ud_t = type { ptr, ptr, ptr }
%struct.H5F_block_t = type { i64, i64 }

@H5D_init_g = external global i8, align 1
@H5_libterm_g = external global i8, align 1
@.str.2 = private unnamed_addr constant [103 x i8] c"generated/home/dtcxzyw/WorkSpace/Projects/compilers/llvm-opt-benchmark/bench/hdf5/hdf5/src/H5Dearray.c\00", align 1
@H5E_DATASET_g = external global i64, align 8
@H5E_CANTALLOC_g = external global i64, align 8
@H5E_CANTOPENOBJ_g = external global i64, align 8
@.str.25 = private unnamed_addr constant [28 x i8] c"can't open extensible array\00", align 1
@__func__.H5D__earray_idx_insert = private unnamed_addr constant [23 x i8] c"H5D__earray_idx_insert\00", align 1
@.str.27 = private unnamed_addr constant [40 x i8] c"The chunk should have allocated already\00", align 1
@H5E_ARGS_g = external global i64, align 8
@H5E_BADRANGE_g = external global i64, align 8
@.str.28 = private unnamed_addr constant [35 x i8] c"chunk index must be less than 2^32\00", align 1
@H5E_CANTSET_g = external global i64, align 8
@.str.29 = private unnamed_addr constant [21 x i8] c"can't set chunk info\00", align 1
@.str.30 = private unnamed_addr constant [24 x i8] c"can't set chunk address\00", align 1

; Function Attrs: nounwind uwtable
define internal i32 @H5D__earray_idx_insert(ptr noundef %0, ptr noundef %1, ptr noundef %2) #0 {
  %4 = alloca i32, align 4
  %5 = alloca ptr, align 8
  %6 = alloca ptr, align 8
  %7 = alloca ptr, align 8
  %8 = alloca ptr, align 8
  %9 = alloca i32, align 4
  %10 = alloca i8, align 1
  %11 = alloca %struct.H5D_earray_filt_elmt_t, align 8
  %12 = alloca i32, align 4
  store ptr %0, ptr %5, align 8, !tbaa !3
  store ptr %1, ptr %6, align 8, !tbaa !54
  store ptr %2, ptr %7, align 8, !tbaa !56
  call void @llvm.lifetime.start.p0(i64 8, ptr %8) #8
  call void @llvm.lifetime.start.p0(i64 4, ptr %9) #8
  store i32 0, ptr %9, align 4, !tbaa !12
  call void @llvm.lifetime.start.p0(i64 1, ptr %10) #8
  store i8 0, ptr %10, align 1, !tbaa !14
  %13 = load i8, ptr @H5D_init_g, align 1, !tbaa !14, !range !16, !noundef !17
  %14 = trunc i8 %13 to i1
  br i1 %14, label %19, label %15

15:                                               ; preds = %3
  %16 = load i8, ptr @H5_libterm_g, align 1, !tbaa !14, !range !16, !noundef !17
  %17 = trunc i8 %16 to i1
  %18 = xor i1 %17, true
  br label %19

19:                                               ; preds = %15, %3
  %20 = phi i1 [ true, %3 ], [ %18, %15 ]
  %21 = xor i1 %20, true
  %22 = xor i1 %21, true
  %23 = zext i1 %22 to i32
  %24 = sext i32 %23 to i64
  %25 = call i64 @llvm.expect.i64(i64 %24, i64 1)
  %26 = icmp ne i64 %25, 0
  br i1 %26, label %27, label %216

27:                                               ; preds = %19
  %28 = load ptr, ptr %5, align 8, !tbaa !3
  %29 = getelementptr inbounds nuw %struct.H5D_chk_idx_info_t, ptr %28, i32 0, i32 3
  %30 = load ptr, ptr %29, align 8, !tbaa !27
  %31 = getelementptr inbounds nuw %struct.H5O_storage_chunk_t, ptr %30, i32 0, i32 3
  %32 = getelementptr inbounds nuw %struct.H5O_storage_chunk_earray_t, ptr %31, i32 0, i32 1
  %33 = load ptr, ptr %32, align 8, !tbaa !26
  %34 = icmp ne ptr null, %33
  br i1 %34, label %59, label %35

35:                                               ; preds = %27
  %36 = load ptr, ptr %5, align 8, !tbaa !3
  %37 = call i32 @H5D__earray_idx_open(ptr noundef %36)
  %38 = icmp slt i32 %37, 0
  br i1 %38, label %39, label %58

39:                                               ; preds = %35
  br label %40

40:                                               ; preds = %39
  br label %41

41:                                               ; preds = %40
  br label %42

42:                                               ; preds = %41
  %43 = load i64, ptr @H5E_DATASET_g, align 8, !tbaa !10
  %44 = load i64, ptr @H5E_CANTOPENOBJ_g, align 8, !tbaa !10
  %45 = call i32 (ptr, ptr, i32, i64, i64, ptr, ...) @H5E_printf_stack(ptr noundef @.str.2, ptr noundef @__func__.H5D__earray_idx_insert, i32 noundef 1023, i64 noundef %43, i64 noundef %44, ptr noundef @.str.25)
  br label %46

46:                                               ; preds = %42
  br label %47

47:                                               ; preds = %46
  store i8 1, ptr %10, align 1, !tbaa !14
  %48 = load i8, ptr %10, align 1, !tbaa !14, !range !16, !noundef !17
  %49 = trunc i8 %48 to i1
  %50 = zext i1 %49 to i8
  store i8 %50, ptr %10, align 1, !tbaa !14
  br label %51

51:                                               ; preds = %47
  br label %52

52:                                               ; preds = %51
  br label %53

53:                                               ; preds = %52
  store i32 -1, ptr %9, align 4, !tbaa !12
  br label %215

54:                                               ; No predecessors!
  br label %55

55:                                               ; preds = %54
  br label %56

56:                                               ; preds = %55
  br label %57

57:                                               ; preds = %56
  br label %58

58:                                               ; preds = %57, %35
  br label %70

59:                                               ; preds = %27
  %60 = load ptr, ptr %5, align 8, !tbaa !3
  %61 = getelementptr inbounds nuw %struct.H5D_chk_idx_info_t, ptr %60, i32 0, i32 3
  %62 = load ptr, ptr %61, align 8, !tbaa !27
  %63 = getelementptr inbounds nuw %struct.H5O_storage_chunk_t, ptr %62, i32 0, i32 3
  %64 = getelementptr inbounds nuw %struct.H5O_storage_chunk_earray_t, ptr %63, i32 0, i32 1
  %65 = load ptr, ptr %64, align 8, !tbaa !26
  %66 = load ptr, ptr %5, align 8, !tbaa !3
  %67 = getelementptr inbounds nuw %struct.H5D_chk_idx_info_t, ptr %66, i32 0, i32 0
  %68 = load ptr, ptr %67, align 8, !tbaa !38
  %69 = call i32 @H5EA_patch_file(ptr noundef %65, ptr noundef %68)
  br label %70

70:                                               ; preds = %59, %58
  %71 = load ptr, ptr %5, align 8, !tbaa !3
  %72 = getelementptr inbounds nuw %struct.H5D_chk_idx_info_t, ptr %71, i32 0, i32 3
  %73 = load ptr, ptr %72, align 8, !tbaa !27
  %74 = getelementptr inbounds nuw %struct.H5O_storage_chunk_t, ptr %73, i32 0, i32 3
  %75 = getelementptr inbounds nuw %struct.H5O_storage_chunk_earray_t, ptr %74, i32 0, i32 1
  %76 = load ptr, ptr %75, align 8, !tbaa !26
  store ptr %76, ptr %8, align 8, !tbaa !58
  %77 = load ptr, ptr %6, align 8, !tbaa !54
  %78 = getelementptr inbounds nuw %struct.H5D_chunk_ud_t, ptr %77, i32 0, i32 2
  %79 = getelementptr inbounds nuw %struct.H5F_block_t, ptr %78, i32 0, i32 0
  %80 = load i64, ptr %79, align 8, !tbaa !60
  %81 = icmp ne i64 %80, -1
  br i1 %81, label %101, label %82

82:                                               ; preds = %70
  br label %83

83:                                               ; preds = %82
  br label %84

84:                                               ; preds = %83
  br label %85

85:                                               ; preds = %84
  %86 = load i64, ptr @H5E_DATASET_g, align 8, !tbaa !10
  %87 = load i64, ptr @H5E_CANTALLOC_g, align 8, !tbaa !10
  %88 = call i32 (ptr, ptr, i32, i64, i64, ptr, ...) @H5E_printf_stack(ptr noundef @.str.2, ptr noundef @__func__.H5D__earray_idx_insert, i32 noundef 1032, i64 noundef %86, i64 noundef %87, ptr noundef @.str.27)
  br label %89

89:                                               ; preds = %85
  br label %90

90:                                               ; preds = %89
  store i8 1, ptr %10, align 1, !tbaa !14
  %91 = load i8, ptr %10, align 1, !tbaa !14, !range !16, !noundef !17
  %92 = trunc i8 %91 to i1
  %93 = zext i1 %92 to i8
  store i8 %93, ptr %10, align 1, !tbaa !14
  br label %94

94:                                               ; preds = %90
  br label %95

95:                                               ; preds = %94
  br label %96

96:                                               ; preds = %95
  store i32 -1, ptr %9, align 4, !tbaa !12
  br label %215

97:                                               ; No predecessors!
  br label %98

98:                                               ; preds = %97
  br label %99

99:                                               ; preds = %98
  br label %100

100:                                              ; preds = %99
  br label %101

101:                                              ; preds = %100, %70
  %102 = load ptr, ptr %6, align 8, !tbaa !54
  %103 = getelementptr inbounds nuw %struct.H5D_chunk_ud_t, ptr %102, i32 0, i32 5
  %104 = load i64, ptr %103, align 8, !tbaa !65
  %105 = load ptr, ptr %6, align 8, !tbaa !54
  %106 = getelementptr inbounds nuw %struct.H5D_chunk_ud_t, ptr %105, i32 0, i32 5
  %107 = load i64, ptr %106, align 8, !tbaa !65
  %108 = and i64 %107, 4294967295
  %109 = icmp ne i64 %104, %108
  br i1 %109, label %110, label %129

110:                                              ; preds = %101
  br label %111

111:                                              ; preds = %110
  br label %112

112:                                              ; preds = %111
  br label %113

113:                                              ; preds = %112
  %114 = load i64, ptr @H5E_ARGS_g, align 8, !tbaa !10
  %115 = load i64, ptr @H5E_BADRANGE_g, align 8, !tbaa !10
  %116 = call i32 (ptr, ptr, i32, i64, i64, ptr, ...) @H5E_printf_stack(ptr noundef @.str.2, ptr noundef @__func__.H5D__earray_idx_insert, i32 noundef 1034, i64 noundef %114, i64 noundef %115, ptr noundef @.str.28)
  br label %117

117:                                              ; preds = %113
  br label %118

118:                                              ; preds = %117
  store i8 1, ptr %10, align 1, !tbaa !14
  %119 = load i8, ptr %10, align 1, !tbaa !14, !range !16, !noundef !17
  %120 = trunc i8 %119 to i1
  %121 = zext i1 %120 to i8
  store i8 %121, ptr %10, align 1, !tbaa !14
  br label %122

122:                                              ; preds = %118
  br label %123

123:                                              ; preds = %122
  br label %124

124:                                              ; preds = %123
  store i32 -1, ptr %9, align 4, !tbaa !12
  br label %215

125:                                              ; No predecessors!
  br label %126

126:                                              ; preds = %125
  br label %127

127:                                              ; preds = %126
  br label %128

128:                                              ; preds = %127
  br label %129

129:                                              ; preds = %128, %101
  %130 = load ptr, ptr %5, align 8, !tbaa !3
  %131 = getelementptr inbounds nuw %struct.H5D_chk_idx_info_t, ptr %130, i32 0, i32 1
  %132 = load ptr, ptr %131, align 8, !tbaa !28
  %133 = getelementptr inbounds nuw %struct.H5O_pline_t, ptr %132, i32 0, i32 3
  %134 = load i64, ptr %133, align 8, !tbaa !29
  %135 = icmp ugt i64 %134, 0
  br i1 %135, label %136, label %184

136:                                              ; preds = %129
  call void @llvm.lifetime.start.p0(i64 16, ptr %11) #8
  %137 = load ptr, ptr %6, align 8, !tbaa !54
  %138 = getelementptr inbounds nuw %struct.H5D_chunk_ud_t, ptr %137, i32 0, i32 2
  %139 = getelementptr inbounds nuw %struct.H5F_block_t, ptr %138, i32 0, i32 0
  %140 = load i64, ptr %139, align 8, !tbaa !60
  %141 = getelementptr inbounds nuw %struct.H5D_earray_filt_elmt_t, ptr %11, i32 0, i32 0
  store i64 %140, ptr %141, align 8, !tbaa !66
  br label %142

142:                                              ; preds = %136
  %143 = load ptr, ptr %6, align 8, !tbaa !54
  %144 = getelementptr inbounds nuw %struct.H5D_chunk_ud_t, ptr %143, i32 0, i32 2
  %145 = getelementptr inbounds nuw %struct.H5F_block_t, ptr %144, i32 0, i32 1
  %146 = load i64, ptr %145, align 8, !tbaa !68
  %147 = trunc i64 %146 to i32
  %148 = getelementptr inbounds nuw %struct.H5D_earray_filt_elmt_t, ptr %11, i32 0, i32 1
  store i32 %147, ptr %148, align 8, !tbaa !69
  br label %149

149:                                              ; preds = %142
  br label %150

150:                                              ; preds = %149
  %151 = load ptr, ptr %6, align 8, !tbaa !54
  %152 = getelementptr inbounds nuw %struct.H5D_chunk_ud_t, ptr %151, i32 0, i32 3
  %153 = load i32, ptr %152, align 8, !tbaa !70
  %154 = getelementptr inbounds nuw %struct.H5D_earray_filt_elmt_t, ptr %11, i32 0, i32 2
  store i32 %153, ptr %154, align 4, !tbaa !71
  %155 = load ptr, ptr %8, align 8, !tbaa !58
  %156 = load ptr, ptr %6, align 8, !tbaa !54
  %157 = getelementptr inbounds nuw %struct.H5D_chunk_ud_t, ptr %156, i32 0, i32 5
  %158 = load i64, ptr %157, align 8, !tbaa !65
  %159 = call i32 @H5EA_set(ptr noundef %155, i64 noundef %158, ptr noundef %11)
  %160 = icmp slt i32 %159, 0
  br i1 %160, label %161, label %180

161:                                              ; preds = %150
  br label %162

162:                                              ; preds = %161
  br label %163

163:                                              ; preds = %162
  br label %164

164:                                              ; preds = %163
  %165 = load i64, ptr @H5E_DATASET_g, align 8, !tbaa !10
  %166 = load i64, ptr @H5E_CANTSET_g, align 8, !tbaa !10
  %167 = call i32 (ptr, ptr, i32, i64, i64, ptr, ...) @H5E_printf_stack(ptr noundef @.str.2, ptr noundef @__func__.H5D__earray_idx_insert, i32 noundef 1046, i64 noundef %165, i64 noundef %166, ptr noundef @.str.29)
  br label %168

168:                                              ; preds = %164
  br label %169

169:                                              ; preds = %168
  store i8 1, ptr %10, align 1, !tbaa !14
  %170 = load i8, ptr %10, align 1, !tbaa !14, !range !16, !noundef !17
  %171 = trunc i8 %170 to i1
  %172 = zext i1 %171 to i8
  store i8 %172, ptr %10, align 1, !tbaa !14
  br label %173

173:                                              ; preds = %169
  br label %174

174:                                              ; preds = %173
  br label %175

175:                                              ; preds = %174
  store i32 -1, ptr %9, align 4, !tbaa !12
  store i32 10, ptr %12, align 4
  br label %181

176:                                              ; No predecessors!
  br label %177

177:                                              ; preds = %176
  br label %178

178:                                              ; preds = %177
  br label %179

179:                                              ; preds = %178
  br label %180

180:                                              ; preds = %179, %150
  store i32 0, ptr %12, align 4
  br label %181

181:                                              ; preds = %175, %180
  call void @llvm.lifetime.end.p0(i64 16, ptr %11) #8
  %182 = load i32, ptr %12, align 4
  switch i32 %182, label %218 [
    i32 0, label %183
    i32 10, label %215
  ]

183:                                              ; preds = %181
  br label %214

184:                                              ; preds = %129
  %185 = load ptr, ptr %8, align 8, !tbaa !58
  %186 = load ptr, ptr %6, align 8, !tbaa !54
  %187 = getelementptr inbounds nuw %struct.H5D_chunk_ud_t, ptr %186, i32 0, i32 5
  %188 = load i64, ptr %187, align 8, !tbaa !65
  %189 = load ptr, ptr %6, align 8, !tbaa !54
  %190 = getelementptr inbounds nuw %struct.H5D_chunk_ud_t, ptr %189, i32 0, i32 2
  %191 = getelementptr inbounds nuw %struct.H5F_block_t, ptr %190, i32 0, i32 0
  %192 = call i32 @H5EA_set(ptr noundef %185, i64 noundef %188, ptr noundef %191)
  %193 = icmp slt i32 %192, 0
  br i1 %193, label %194, label %213

194:                                              ; preds = %184
  br label %195

195:                                              ; preds = %194
  br label %196

196:                                              ; preds = %195
  br label %197

197:                                              ; preds = %196
  %198 = load i64, ptr @H5E_DATASET_g, align 8, !tbaa !10
  %199 = load i64, ptr @H5E_CANTSET_g, align 8, !tbaa !10
  %200 = call i32 (ptr, ptr, i32, i64, i64, ptr, ...) @H5E_printf_stack(ptr noundef @.str.2, ptr noundef @__func__.H5D__earray_idx_insert, i32 noundef 1051, i64 noundef %198, i64 noundef %199, ptr noundef @.str.30)
  br label %201

201:                                              ; preds = %197
  br label %202

202:                                              ; preds = %201
  store i8 1, ptr %10, align 1, !tbaa !14
  %203 = load i8, ptr %10, align 1, !tbaa !14, !range !16, !noundef !17
  %204 = trunc i8 %203 to i1
  %205 = zext i1 %204 to i8
  store i8 %205, ptr %10, align 1, !tbaa !14
  br label %206

206:                                              ; preds = %202
  br label %207

207:                                              ; preds = %206
  br label %208

208:                                              ; preds = %207
  store i32 -1, ptr %9, align 4, !tbaa !12
  br label %215

209:                                              ; No predecessors!
  br label %210

210:                                              ; preds = %209
  br label %211

211:                                              ; preds = %210
  br label %212

212:                                              ; preds = %211
  br label %213

213:                                              ; preds = %212, %184
  br label %214

214:                                              ; preds = %213, %183
  br label %215

215:                                              ; preds = %214, %181, %208, %124, %96, %53
  br label %216

216:                                              ; preds = %215, %19
  %217 = load i32, ptr %9, align 4, !tbaa !12
  store i32 %217, ptr %4, align 4
  store i32 1, ptr %12, align 4
  br label %218

218:                                              ; preds = %216, %181
  call void @llvm.lifetime.end.p0(i64 1, ptr %10) #8
  call void @llvm.lifetime.end.p0(i64 4, ptr %9) #8
  call void @llvm.lifetime.end.p0(i64 8, ptr %8) #8
  %219 = load i32, ptr %4, align 4
  ret i32 %219
}