; Function Attrs: nounwind uwtable
define internal range(i32 -1, 1) i32 @H5D__earray_idx_insert(ptr noundef readonly captures(none) %0, ptr noundef %1, ptr readnone captures(none) %2) #0 {
  %4 = alloca %struct.H5D_earray_filt_elmt_t, align 8
  %5 = load i8, ptr @H5D_init_g, align 1, !tbaa !3, !range !7, !noundef !8
  %6 = trunc nuw i8 %5 to i1
  %7 = load i8, ptr @H5_libterm_g, align 1, !range !7
  %8 = trunc nuw i8 %7 to i1
  %9 = xor i1 %8, true
  %10 = select i1 %6, i1 true, i1 %9
  br i1 %10, label %11, label %70, !prof !9

11:                                               ; preds = %3
  %12 = getelementptr inbounds nuw i8, ptr %0, i64 24
  %13 = load ptr, ptr %12, align 8, !tbaa !22
  %14 = getelementptr inbounds nuw i8, ptr %13, i64 32
  %15 = load ptr, ptr %14, align 8, !tbaa !21
  %.not = icmp eq ptr %15, null
  br i1 %.not, label %16, label %23

16:                                               ; preds = %11
  %17 = tail call i32 @H5D__earray_idx_open(ptr noundef nonnull %0)
  %18 = icmp slt i32 %17, 0
  br i1 %18, label %19, label %26

19:                                               ; preds = %16
  %20 = load i64, ptr @H5E_DATASET_g, align 8, !tbaa !10
  %21 = load i64, ptr @H5E_CANTOPENOBJ_g, align 8, !tbaa !10
  %22 = tail call i32 (ptr, ptr, i32, i64, i64, ptr, ...) @H5E_printf_stack(ptr noundef nonnull @.str.2, ptr noundef nonnull @__func__.H5D__earray_idx_insert, i32 noundef 1023, i64 noundef %20, i64 noundef %21, ptr noundef nonnull @.str.25) #11
  br label %70

23:                                               ; preds = %11
  %24 = load ptr, ptr %0, align 8, !tbaa !34
  %25 = tail call i32 @H5EA_patch_file(ptr noundef nonnull %15, ptr noundef %24) #11
  br label %26

26:                                               ; preds = %16, %23
  %27 = load ptr, ptr %12, align 8, !tbaa !22
  %28 = getelementptr inbounds nuw i8, ptr %27, i64 32
  %29 = load ptr, ptr %28, align 8, !tbaa !21
  %30 = getelementptr inbounds nuw i8, ptr %1, i64 32
  %31 = load i64, ptr %30, align 8, !tbaa !47
  %.not28 = icmp eq i64 %31, -1
  br i1 %.not28, label %32, label %36

32:                                               ; preds = %26
  %33 = load i64, ptr @H5E_DATASET_g, align 8, !tbaa !10
  %34 = load i64, ptr @H5E_CANTALLOC_g, align 8, !tbaa !10
  %35 = tail call i32 (ptr, ptr, i32, i64, i64, ptr, ...) @H5E_printf_stack(ptr noundef nonnull @.str.2, ptr noundef nonnull @__func__.H5D__earray_idx_insert, i32 noundef 1032, i64 noundef %33, i64 noundef %34, ptr noundef nonnull @.str.27) #11
  br label %70

36:                                               ; preds = %26
  %37 = getelementptr inbounds nuw i8, ptr %1, i64 56
  %38 = load i64, ptr %37, align 8, !tbaa !52
  %.not29 = icmp ult i64 %38, 4294967296
  br i1 %.not29, label %43, label %39

39:                                               ; preds = %36
  %40 = load i64, ptr @H5E_ARGS_g, align 8, !tbaa !10
  %41 = load i64, ptr @H5E_BADRANGE_g, align 8, !tbaa !10
  %42 = tail call i32 (ptr, ptr, i32, i64, i64, ptr, ...) @H5E_printf_stack(ptr noundef nonnull @.str.2, ptr noundef nonnull @__func__.H5D__earray_idx_insert, i32 noundef 1034, i64 noundef %40, i64 noundef %41, ptr noundef nonnull @.str.28) #11
  br label %70

43:                                               ; preds = %36
  %44 = getelementptr inbounds nuw i8, ptr %0, i64 8
  %45 = load ptr, ptr %44, align 8, !tbaa !23
  %46 = getelementptr inbounds nuw i8, ptr %45, i64 56
  %47 = load i64, ptr %46, align 8, !tbaa !24
  %.not30 = icmp eq i64 %47, 0
  br i1 %.not30, label %63, label %48

48:                                               ; preds = %43
  call void @llvm.lifetime.start.p0(i64 16, ptr nonnull %4) #11
  store i64 %31, ptr %4, align 8, !tbaa !53
  %49 = getelementptr inbounds nuw i8, ptr %1, i64 40
  %50 = load i64, ptr %49, align 8, !tbaa !55
  %51 = trunc i64 %50 to i32
  %52 = getelementptr inbounds nuw i8, ptr %4, i64 8
  store i32 %51, ptr %52, align 8, !tbaa !56
  %53 = getelementptr inbounds nuw i8, ptr %1, i64 48
  %54 = load i32, ptr %53, align 8, !tbaa !57
  %55 = getelementptr inbounds nuw i8, ptr %4, i64 12
  store i32 %54, ptr %55, align 4, !tbaa !58
  %56 = call i32 @H5EA_set(ptr noundef %29, i64 noundef %38, ptr noundef nonnull %4) #11
  %57 = icmp slt i32 %56, 0
  br i1 %57, label %58, label %62

58:                                               ; preds = %48
  %59 = load i64, ptr @H5E_DATASET_g, align 8, !tbaa !10
  %60 = load i64, ptr @H5E_CANTSET_g, align 8, !tbaa !10
  %61 = call i32 (ptr, ptr, i32, i64, i64, ptr, ...) @H5E_printf_stack(ptr noundef nonnull @.str.2, ptr noundef nonnull @__func__.H5D__earray_idx_insert, i32 noundef 1046, i64 noundef %59, i64 noundef %60, ptr noundef nonnull @.str.29) #11
  br label %62

62:                                               ; preds = %48, %58
  %.1 = phi i32 [ -1, %58 ], [ 0, %48 ]
  call void @llvm.lifetime.end.p0(i64 16, ptr nonnull %4) #11
  br label %70

63:                                               ; preds = %43
  %64 = tail call i32 @H5EA_set(ptr noundef %29, i64 noundef %38, ptr noundef nonnull %30) #11
  %65 = icmp slt i32 %64, 0
  br i1 %65, label %66, label %70

66:                                               ; preds = %63
  %67 = load i64, ptr @H5E_DATASET_g, align 8, !tbaa !10
  %68 = load i64, ptr @H5E_CANTSET_g, align 8, !tbaa !10
  %69 = tail call i32 (ptr, ptr, i32, i64, i64, ptr, ...) @H5E_printf_stack(ptr noundef nonnull @.str.2, ptr noundef nonnull @__func__.H5D__earray_idx_insert, i32 noundef 1051, i64 noundef %67, i64 noundef %68, ptr noundef nonnull @.str.30) #11
  br label %70

70:                                               ; preds = %62, %3, %63, %66, %39, %32, %19
  %.025 = phi i32 [ -1, %39 ], [ %.1, %62 ], [ -1, %66 ], [ 0, %63 ], [ -1, %32 ], [ -1, %19 ], [ 0, %3 ]
  ret i32 %.025
}